(dp0
S'end_token'
p1
I28
sS'start_token'
p2
I27
sS'index_to_char'
p3
(dp4
I0
S'-'
p5
sI1
S'a'
p6
sI2
S'b'
p7
sI3
S'c'
p8
sI4
S'd'
p9
sI5
S'e'
p10
sI6
S'f'
p11
sI7
S'g'
p12
sI8
S'h'
p13
sI9
S'i'
p14
sI10
S'j'
p15
sI11
S'k'
p16
sI12
S'l'
p17
sI13
S'm'
p18
sI14
S'n'
p19
sI15
S'o'
p20
sI16
S'p'
p21
sI17
S'q'
p22
sI18
S'r'
p23
sI19
S's'
p24
sI20
S't'
p25
sI21
S'u'
p26
sI22
S'v'
p27
sI23
S'w'
p28
sI24
S'x'
p29
sI25
S'y'
p30
sI26
S'z'
p31
sI27
S'SOS'
p32
sI28
S'EOS'
p33
ssS'char_to_index'
p34
(dp35
g33
I28
sg5
I0
sg32
I27
sg6
I1
sg8
I3
sg7
I2
sg10
I5
sg9
I4
sg12
I7
sg11
I6
sg14
I9
sg13
I8
sg16
I11
sg15
I10
sg18
I13
sg17
I12
sg20
I15
sg19
I14
sg22
I17
sg21
I16
sg24
I19
sg23
I18
sg26
I21
sg25
I20
sg28
I23
sg27
I22
sg30
I25
sg29
I24
sg31
I26
ss.